target datalayout = "e-m:e-p270:32:32-p271:32:32-p272:64:64-i64:64-i128:128-f80:128-n8:16:32:64-S128"
target triple = "x86_64-pc-linux-gnu"

%"class.icu_77::UObject" = type { ptr }
%"class.icu_77::UnicodeSet" = type <{ %"class.icu_77::UnicodeFilter", ptr, i32, i32, i8, [7 x i8], ptr, ptr, i32, [4 x i8], ptr, i32, [4 x i8], ptr, ptr, [25 x i32], [4 x i8] }>
%"class.icu_77::UnicodeFilter" = type { %"class.icu_77::UnicodeFunctor", %"class.icu_77::UnicodeMatcher" }
%"class.icu_77::UnicodeFunctor" = type { %"class.icu_77::UObject" }
%"class.icu_77::UnicodeMatcher" = type { ptr }
%"class.icu_77::CheckResult" = type <{ %"class.icu_77::UObject", %"class.icu_77::IcuCApiHelper.1", i32, %"class.icu_77::UnicodeSet", i32, [4 x i8] }>
%"class.icu_77::IcuCApiHelper.1" = type { i32 }

@_ZTVN6icu_7711CheckResultE = unnamed_addr constant { [5 x ptr] } { [5 x ptr] [ptr null, ptr @_ZTIN6icu_7711CheckResultE, ptr @_ZN6icu_7711CheckResultD1Ev, ptr @_ZN6icu_7711CheckResultD0Ev, ptr @_ZNK6icu_777UObject17getDynamicClassIDEv] }, align 8

; Function Attrs: mustprogress nounwind uwtable
define linkonce_odr void @_ZN6icu_7713IcuCApiHelperI17USpoofCheckResultNS_11CheckResultELi657779934EED2Ev(ptr noundef nonnull align 4 dereferenceable(4) %0) unnamed_addr #0 comdat align 2 {
  %2 = alloca ptr, align 8
  store ptr %0, ptr %2, align 8, !tbaa !75
  %3 = load ptr, ptr %2, align 8
  %4 = getelementptr inbounds nuw %"class.icu_77::IcuCApiHelper.1", ptr %3, i32 0, i32 0
  store i32 0, ptr %4, align 4, !tbaa !77
  ret void
}

; Function Attrs: mustprogress nounwind uwtable
define void @_ZN6icu_7711CheckResultD2Ev(ptr noundef nonnull align 8 dereferenceable(220) %0) unnamed_addr #0 align 2 {
  %2 = alloca ptr, align 8
  store ptr %0, ptr %2, align 8, !tbaa !73
  %3 = load ptr, ptr %2, align 8
  store ptr getelementptr inbounds inrange(-16, 24) ({ [5 x ptr] }, ptr @_ZTVN6icu_7711CheckResultE, i32 0, i32 0, i32 2), ptr %3, align 8, !tbaa !11
  %4 = getelementptr inbounds nuw %"class.icu_77::CheckResult", ptr %3, i32 0, i32 3
  call void @_ZN6icu_7710UnicodeSetD1Ev(ptr noundef nonnull align 8 dereferenceable(200) %4) #15
  %5 = getelementptr inbounds i8, ptr %3, i64 8
  call void @_ZN6icu_7713IcuCApiHelperI17USpoofCheckResultNS_11CheckResultELi657779934EED2Ev(ptr noundef nonnull align 4 dereferenceable(4) %5) #15
  call void @_ZN6icu_777UObjectD2Ev(ptr noundef nonnull align 8 dereferenceable(8) %3) #15
  ret void
}