; Function Attrs: mustprogress nounwind uwtable
define void @_ZN6icu_7711CheckResultD2Ev(ptr noundef nonnull align 8 dereferenceable(220) initializes((0, 8)) %0) unnamed_addr #6 align 2 {
  store ptr getelementptr inbounds nuw inrange(-16, 24) (i8, ptr @_ZTVN6icu_7711CheckResultE, i64 16), ptr %0, align 8, !tbaa !8
  %2 = getelementptr inbounds nuw i8, ptr %0, i64 16
  tail call void @_ZN6icu_7710UnicodeSetD1Ev(ptr noundef nonnull align 8 dereferenceable(200) %2) #21
  %3 = getelementptr inbounds nuw i8, ptr %0, i64 8
  store i32 0, ptr %3, align 8, !tbaa !61
  tail call void @_ZN6icu_777UObjectD2Ev(ptr noundef nonnull align 8 dereferenceable(8) %0) #21
  ret void
}